target datalayout = "e-m:e-p270:32:32-p271:32:32-p272:64:64-i64:64-i128:128-f80:128-n8:16:32:64-S128"
target triple = "x86_64-unknown-linux-gnu"

; Function Attrs: mustprogress uwtable
define noundef i64 @_ZN7openvdb5v11_011compression21bloscUncompressedSizeEPKc(ptr noundef %buffer) #5 {
entry:
  %buffer.addr = alloca ptr, align 8
  %bytes = alloca i64, align 8
  %_1 = alloca i64, align 8
  %_2 = alloca i64, align 8
  store ptr %buffer, ptr %buffer.addr, align 8
  %0 = load ptr, ptr %buffer.addr, align 8
  call void @blosc_cbuffer_sizes(ptr noundef %0, ptr noundef %bytes, ptr noundef %_1, ptr noundef %_2)
  %1 = load i64, ptr %bytes, align 8
  ret i64 %1
}