; Function Attrs: mustprogress uwtable
define noundef i64 @_ZN7openvdb5v11_011compression21bloscUncompressedSizeEPKc(ptr noundef %buffer) local_unnamed_addr #4 {
entry:
  %bytes = alloca i64, align 8
  %_1 = alloca i64, align 8
  %_2 = alloca i64, align 8
  call void @blosc_cbuffer_sizes(ptr noundef %buffer, ptr noundef nonnull %bytes, ptr noundef nonnull %_1, ptr noundef nonnull %_2)
  %0 = load i64, ptr %bytes, align 8
  ret i64 %0
}